target datalayout = "e-m:e-p270:32:32-p271:32:32-p272:64:64-i64:64-i128:128-f80:128-n8:16:32:64-S128"
target triple = "x86_64-pc-linux-gnu"

%struct.quic_sstream_st = type { %struct.ring_buf, %struct.ossl_list_st_uint_set, %struct.ossl_list_st_uint_set, i8 }
%struct.ring_buf = type { ptr, i64, i64, i64 }
%struct.ossl_list_st_uint_set = type { ptr, ptr, i64 }

; Function Attrs: nounwind uwtable
define i32 @ossl_quic_sstream_mark_transmitted_fin(ptr noundef %0, i64 noundef %1) #0 {
  %3 = alloca i32, align 4
  %4 = alloca ptr, align 8
  %5 = alloca i64, align 8
  store ptr %0, ptr %4, align 8, !tbaa !7
  store i64 %1, ptr %5, align 8, !tbaa !3
  %6 = load ptr, ptr %4, align 8, !tbaa !7
  %7 = getelementptr inbounds nuw %struct.quic_sstream_st, ptr %6, i32 0, i32 3
  %8 = load i8, ptr %7, align 8
  %9 = and i8 %8, 1
  %10 = zext i8 %9 to i32
  %11 = icmp ne i32 %10, 0
  br i1 %11, label %12, label %19

12:                                               ; preds = %2
  %13 = load i64, ptr %5, align 8, !tbaa !3
  %14 = load ptr, ptr %4, align 8, !tbaa !7
  %15 = getelementptr inbounds nuw %struct.quic_sstream_st, ptr %14, i32 0, i32 0
  %16 = getelementptr inbounds nuw %struct.ring_buf, ptr %15, i32 0, i32 2
  %17 = load i64, ptr %16, align 8, !tbaa !31
  %18 = icmp ne i64 %13, %17
  br i1 %18, label %19, label %20

19:                                               ; preds = %12, %2
  store i32 0, ptr %3, align 4
  br label %26

20:                                               ; preds = %12
  %21 = load ptr, ptr %4, align 8, !tbaa !7
  %22 = getelementptr inbounds nuw %struct.quic_sstream_st, ptr %21, i32 0, i32 3
  %23 = load i8, ptr %22, align 8
  %24 = and i8 %23, -3
  %25 = or i8 %24, 2
  store i8 %25, ptr %22, align 8
  store i32 1, ptr %3, align 4
  br label %26

26:                                               ; preds = %20, %19
  %27 = load i32, ptr %3, align 4
  ret i32 %27
}