; Function Attrs: mustprogress nofree norecurse nosync nounwind willreturn memory(argmem: readwrite) uwtable
define range(i32 0, 2) i32 @ossl_quic_sstream_mark_transmitted_fin(ptr noundef captures(none) %0, i64 noundef %1) local_unnamed_addr #6 {
  %3 = getelementptr inbounds nuw i8, ptr %0, i64 80
  %4 = load i8, ptr %3, align 8
  %5 = and i8 %4, 1
  %.not = icmp eq i8 %5, 0
  br i1 %.not, label %11, label %6

6:                                                ; preds = %2
  %7 = getelementptr inbounds nuw i8, ptr %0, i64 16
  %8 = load i64, ptr %7, align 8, !tbaa !17
  %.not4 = icmp eq i64 %1, %8
  br i1 %.not4, label %9, label %11

9:                                                ; preds = %6
  %10 = or i8 %4, 2
  store i8 %10, ptr %3, align 8
  br label %11

11:                                               ; preds = %2, %6, %9
  %.0 = phi i32 [ 1, %9 ], [ 0, %6 ], [ 0, %2 ]
  ret i32 %.0
}